; Function Attrs: mustprogress uwtable
define noundef i32 @proj_trans_array(ptr noundef %0, i32 noundef %1, i64 noundef %2, ptr nocapture noundef %3) local_unnamed_addr #1 {
  %5 = alloca %union.PJ_COORD, align 8
  %.not32 = icmp eq i64 %2, 0
  br i1 %.not32, label %._crit_edge, label %.lr.ph

.lr.ph:                                           ; preds = %4, %proj_errno.exit
  %.031 = phi i64 [ %14, %proj_errno.exit ], [ 0, %4 ]
  %.01930 = phi i1 [ %.1, %proj_errno.exit ], [ true, %4 ]
  %.02029 = phi i1 [ %.121, %proj_errno.exit ], [ false, %4 ]
  %.02228 = phi i32 [ %.123, %proj_errno.exit ], [ 0, %4 ]
  %6 = load ptr, ptr %0, align 8
  call void @_Z22proj_context_errno_setP6pj_ctxi(ptr noundef %6, i32 noundef 0)
  %7 = getelementptr inbounds %union.PJ_COORD, ptr %3, i64 %.031
  call void @proj_trans(ptr dead_on_unwind nonnull writable sret(%union.PJ_COORD) align 8 %5, ptr noundef nonnull %0, i32 noundef %1, ptr noundef nonnull byval(%union.PJ_COORD) align 8 %7)
  call void @llvm.memcpy.p0.p0.i64(ptr noundef nonnull align 8 dereferenceable(32) %7, ptr noundef nonnull align 8 dereferenceable(32) %5, i64 32, i1 false)
  %8 = call noundef ptr @_Z10pj_get_ctxP8PJconsts(ptr noundef nonnull %0)
  %9 = icmp eq ptr %8, null
  br i1 %9, label %10, label %proj_errno.exit

10:                                               ; preds = %.lr.ph
  %11 = call noundef ptr @_Z18pj_get_default_ctxv()
  br label %proj_errno.exit

proj_errno.exit:                                  ; preds = %.lr.ph, %10
  %.0.i.i = phi ptr [ %11, %10 ], [ %8, %.lr.ph ]
  %12 = getelementptr inbounds i8, ptr %.0.i.i, i64 32
  %13 = load i32, ptr %12, align 8
  %.not = icmp ne i32 %13, 0
  %brmerge.not = select i1 %.not, i1 %.02029, i1 false
  %.not25 = icmp ne i32 %.02228, %13
  %or.cond.not = select i1 %.01930, i1 %.not25, i1 false
  %spec.select = select i1 %or.cond.not, i32 2048, i32 %.02228
  %.022.mux = select i1 %.02029, i32 %spec.select, i32 %13
  %.123 = select i1 %.not, i32 %.022.mux, i32 %.02228
  %.121 = select i1 %.not, i1 true, i1 %.02029
  %spec.select27 = select i1 %brmerge.not, i1 %or.cond.not, i1 false
  %.1 = xor i1 %.01930, %spec.select27
  %14 = add nuw i64 %.031, 1
  %exitcond.not = icmp eq i64 %14, %2
  br i1 %exitcond.not, label %._crit_edge, label %.lr.ph, !llvm.loop !10

._crit_edge:                                      ; preds = %proj_errno.exit, %4
  %.022.lcssa = phi i32 [ 0, %4 ], [ %.123, %proj_errno.exit ]
  %15 = load ptr, ptr %0, align 8
  call void @_Z22proj_context_errno_setP6pj_ctxi(ptr noundef %15, i32 noundef %.022.lcssa)
  ret i32 %.022.lcssa
}